; Function Attrs: nounwind sspstrong uwtable
define internal fastcc i64 @imemo_count_value(ptr noundef readonly captures(none) %0) unnamed_addr #0 {
  %2 = load i64, ptr %0, align 8, !tbaa !58
  %3 = and i64 %2, 65536
  %.not = icmp eq i64 %3, 0
  %4 = getelementptr inbounds nuw i8, ptr %0, i64 32
  %5 = load i64, ptr %4, align 8, !tbaa !22
  br i1 %.not, label %6, label %rb_ulong2num_inline.exit

6:                                                ; preds = %1
  %7 = icmp ult i64 %5, 4611686018427387904
  br i1 %7, label %8, label %11

8:                                                ; preds = %6
  %9 = shl nuw nsw i64 %5, 1
  %10 = or disjoint i64 %9, 1
  br label %rb_ulong2num_inline.exit

11:                                               ; preds = %6
  %12 = tail call i64 @rb_uint2big(i64 noundef %5) #14
  br label %rb_ulong2num_inline.exit

rb_ulong2num_inline.exit:                         ; preds = %1, %11, %8
  %.0 = phi i64 [ %10, %8 ], [ %12, %11 ], [ %5, %1 ]
  ret i64 %.0
}